Certificate:
    Data:
        Version: 3 (0x2)
        Serial Number:
            45:d0:87:7a:80:31:88:38:a3:85:71:7c:37:c9:42:79:00:88:b5:1a
        Signature Algorithm: sha256WithRSAEncryption
        Issuer: C=US, ST=New York, O=Jamie, CN=Jamie/emailAddress=jamie@mayfirst.org
        Validity
            Not Before: Dec 19 17:43:06 2018 GMT
            Not After : Dec 18 17:43:06 2021 GMT
        Subject: C=US, ST=New York, O=Jamie, CN=Jamie/emailAddress=jamie@mayfirst.org
        Subject Public Key Info:
            Public Key Algorithm: rsaEncryption
                RSA Public-Key: (2048 bit)
                Modulus:
                    00:95:eb:e1:de:d9:7a:0e:a8:ab:cc:26:a9:4d:de:
                    65:ff:10:26:2a:1e:9a:e7:74:39:ce:ca:dc:8c:81:
                    a4:e5:b7:ca:33:99:2e:cd:aa:41:9b:bf:36:17:81:
                    94:f2:03:8d:a6:8e:41:71:fa:e8:1c:81:1d:28:5f:
                    75:fc:78:78:8b:c0:ca:03:2f:40:63:05:64:d6:dc:
                    74:ba:23:82:18:db:ef:cb:9c:56:13:14:35:19:f7:
                    83:f7:9c:23:4f:10:b9:40:c1:ee:5a:4f:89:64:a2:
                    8c:a4:d1:62:1f:24:6b:b6:f1:b3:3b:6c:4b:b5:e1:
                    00:b3:6f:cc:cc:4c:2f:2b:f0:ac:d7:31:33:40:05:
                    3c:18:f8:8e:1b:82:d2:7a:c2:95:ab:31:83:99:5c:
                    68:1b:b1:cb:b3:fa:55:ab:e5:5b:fa:de:a9:3b:f6:
                    76:bc:b4:18:d7:57:da:14:9d:36:69:16:82:cb:6f:
                    2b:d0:b3:a4:92:c5:5d:b8:b8:2d:ae:25:10:3d:a5:
                    a7:09:92:0e:ca:99:33:b4:2b:41:3a:44:46:d2:b9:
                    93:d6:0d:26:c7:8f:68:c5:44:13:dd:cb:4c:cd:52:
                    dc:db:ff:20:e2:a3:4a:0d:51:54:c5:9c:a3:59:34:
                    8d:76:5d:79:bd:d8:54:e5:71:e6:aa:61:cf:9b:82:
                    50:05
                Exponent: 65537 (0x10001)
        X509v3 extensions:
            X509v3 Subject Key Identifier: 
                4C:D8:7A:D6:9A:62:51:39:F9:0A:4B:76:C8:D1:CA:1E:57:04:E2:B5
            X509v3 Authority Key Identifier: 
                keyid:4C:D8:7A:D6:9A:62:51:39:F9:0A:4B:76:C8:D1:CA:1E:57:04:E2:B5

            X509v3 Basic Constraints: critical
                CA:TRUE
    Signature Algorithm: sha256WithRSAEncryption
         05:89:eb:d8:92:3f:6c:fb:bc:15:ba:c7:6b:0b:36:84:4d:f3:
         7c:1e:51:27:7d:ff:00:b9:b0:9e:a2:24:c4:82:e3:37:19:31:
         68:61:40:8a:68:f2:51:41:88:4e:0a:70:c6:0a:50:ef:7c:e1:
         d1:16:57:15:d7:65:3c:96:aa:e5:a0:2b:ae:10:29:b6:e0:e8:
         1d:78:d1:07:71:d6:d1:fb:50:53:16:bb:4c:35:10:c9:da:59:
         4e:a1:d2:c8:81:24:28:d3:aa:ce:1a:ed:e1:a6:a1:00:a6:5a:
         4f:fb:fc:45:28:5a:1d:00:53:2b:fb:e2:f7:3e:15:cc:c6:21:
         c2:0d:7a:6f:e6:e2:96:7d:69:6e:f4:b2:a1:08:5e:f2:60:65:
         20:50:3d:da:68:a8:9f:2e:42:ca:64:0b:b8:a8:9c:1a:85:ef:
         56:ff:92:e6:4b:9b:3e:68:5e:f8:55:a9:7a:d4:06:d1:bc:3c:
         41:1f:54:b4:29:d6:b9:bc:98:31:c8:4a:aa:1a:bf:39:d2:70:
         b8:d8:79:db:1d:76:3b:36:cb:d6:7a:1e:9e:3e:fe:24:fc:66:
         ef:3b:06:99:a3:03:95:54:e3:6e:30:01:a3:66:55:29:39:3b:
         d1:53:ee:4a:fa:26:07:2d:81:34:d8:22:73:2c:c6:61:9a:0f:
         67:9d:29:88
-----BEGIN CERTIFICATE-----
MIIDpzCCAo+gAwIBAgIURdCHeoAxiDijhXF8N8lCeQCItRowDQYJKoZIhvcNAQEL
BQAwYzELMAkGA1UEBhMCVVMxETAPBgNVBAgMCE5ldyBZb3JrMQ4wDAYDVQQKDAVK
YW1pZTEOMAwGA1UEAwwFSmFtaWUxITAfBgkqhkiG9w0BCQEWEmphbWllQG1heWZp
cnN0Lm9yZzAeFw0xODEyMTkxNzQzMDZaFw0yMTEyMTgxNzQzMDZaMGMxCzAJBgNV
BAYTAlVTMREwDwYDVQQIDAhOZXcgWW9yazEOMAwGA1UECgwFSmFtaWUxDjAMBgNV
BAMMBUphbWllMSEwHwYJKoZIhvcNAQkBFhJqYW1pZUBtYXlmaXJzdC5vcmcwggEi
MA0GCSqGSIb3DQEBAQUAA4IBDwAwggEKAoIBAQCV6+He2XoOqKvMJqlN3mX/ECYq
HprndDnOytyMgaTlt8ozmS7NqkGbvzYXgZTyA42mjkFx+ugcgR0oX3X8eHiLwMoD
L0BjBWTW3HS6I4IY2+/LnFYTFDUZ94P3nCNPELlAwe5aT4lkooyk0WIfJGu28bM7
bEu14QCzb8zMTC8r8KzXMTNABTwY+I4bgtJ6wpWrMYOZXGgbscuz+lWr5Vv63qk7
9na8tBjXV9oUnTZpFoLLbyvQs6SSxV24uC2uJRA9pacJkg7KmTO0K0E6REbSuZPW
DSbHj2jFRBPdy0zNUtzb/yDio0oNUVTFnKNZNI12XXm92FTlceaqYc+bglAFAgMB
AAGjUzBRMB0GA1UdDgQWBBRM2HrWmmJROfkKS3bI0coeVwTitTAfBgNVHSMEGDAW
gBRM2HrWmmJROfkKS3bI0coeVwTitTAPBgNVHRMBAf8EBTADAQH/MA0GCSqGSIb3
DQEBCwUAA4IBAQAFievYkj9s+7wVusdrCzaETfN8HlEnff8AubCeoiTEguM3GTFo
YUCKaPJRQYhOCnDGClDvfOHRFlcV12U8lqrloCuuECm24OgdeNEHcdbR+1BTFrtM
NRDJ2llOodLIgSQo06rOGu3hpqEAplpP+/xFKFodAFMr++L3PhXMxiHCDXpv5uKW
fWlu9LKhCF7yYGUgUD3aaKifLkLKZAu4qJwahe9W/5LmS5s+aF74Val61AbRvDxB
H1S0Kda5vJgxyEqqGr850nC42HnbHXY7NsvWeh6ePv4k/GbvOwaZowOVVONuMAGj
ZlUpOTvRU+5K+iYHLYE02CJzLMZhmg9nnSmI
-----END CERTIFICATE-----
